---
triple:          'arm64-apple-darwin'
binary-path:     '/Users/marcosjuarez/Documents/personal/Competitiva/PracticaCompetitiva/AgoDic2024/plantilla'
relocations:
  - { offset: 0x18FD9, size: 0x8, addend: 0x0, symName: __ZStL8__ioinit, symObjAddr: 0x76EE8, symBinAddr: 0x10000C000, symSize: 0x0 }
  - { offset: 0x193E1, size: 0x8, addend: 0x0, symName: __ZNSt11__copy_moveILb1ELb0ESt26random_access_iterator_tagE12__assign_oneIiiEEvPT_PT0_, symObjAddr: 0x2068, symBinAddr: 0x1000062EC, symSize: 0x30 }
  - { offset: 0x1942B, size: 0x8, addend: 0x0, symName: __ZNSt20__copy_move_backwardILb1ELb1ESt26random_access_iterator_tagE13__copy_move_bIiiEEPT0_PT_S6_S4_, symObjAddr: 0x1FBC, symBinAddr: 0x100006240, symSize: 0xAC }
  - { offset: 0x19499, size: 0x8, addend: 0x0, symName: __ZN9__gnu_cxx5__ops14_Iter_comp_valISt7greaterIiEEclINS_17__normal_iteratorIPiSt6vectorIiSaIiEEEEiEEbT_RT0_, symObjAddr: 0x1F7C, symBinAddr: 0x100006200, symSize: 0x40 }
  - { offset: 0x194EF, size: 0x8, addend: 0x0, symName: __ZSt23__copy_move_backward_a2ILb1EPiS0_ET1_T0_S2_S1_, symObjAddr: 0x1F50, symBinAddr: 0x1000061D4, symSize: 0x2C }
  - { offset: 0x19559, size: 0x8, addend: 0x0, symName: __ZSt11__push_heapIN9__gnu_cxx17__normal_iteratorIPiSt6vectorIiSaIiEEEEliNS0_5__ops14_Iter_comp_valISt7greaterIiEEEEvT_T0_SD_T1_RT2_, symObjAddr: 0x1E2C, symBinAddr: 0x1000060B0, symSize: 0x124 }
  - { offset: 0x19622, size: 0x8, addend: 0x0, symName: __ZN9__gnu_cxx5__ops14_Iter_comp_valISt7greaterIiEEC1EONS0_15_Iter_comp_iterIS3_EE, symObjAddr: 0x1E08, symBinAddr: 0x10000608C, symSize: 0x24 }
  - { offset: 0x1964C, size: 0x8, addend: 0x0, symName: __ZSt12__niter_wrapIN9__gnu_cxx17__normal_iteratorIPiSt6vectorIiSaIiEEEES2_ET_S7_T0_, symObjAddr: 0x1DC0, symBinAddr: 0x100006044, symSize: 0x48 }
  - { offset: 0x19696, size: 0x8, addend: 0x0, symName: __ZSt23__copy_move_backward_a1ILb1EPiS0_ET1_T0_S2_S1_, symObjAddr: 0x1D94, symBinAddr: 0x100006018, symSize: 0x2C }
  - { offset: 0x196FA, size: 0x8, addend: 0x0, symName: __ZSt12__niter_baseIPiSt6vectorIiSaIiEEET_N9__gnu_cxx17__normal_iteratorIS4_T0_EE, symObjAddr: 0x1D74, symBinAddr: 0x100005FF8, symSize: 0x20 }
  - { offset: 0x19734, size: 0x8, addend: 0x0, symName: __ZSt4swapIiENSt9enable_ifIXsrSt6__and_IJSt6__not_ISt15__is_tuple_likeIT_EESt21is_move_constructibleIS4_ESt18is_move_assignableIS4_EEE5valueEvE4typeERS4_SE_, symObjAddr: 0x1D20, symBinAddr: 0x100005FA4, symSize: 0x54 }
  - { offset: 0x19785, size: 0x8, addend: 0x0, symName: __ZSt13__adjust_heapIN9__gnu_cxx17__normal_iteratorIPiSt6vectorIiSaIiEEEEliNS0_5__ops15_Iter_comp_iterISt7greaterIiEEEEvT_T0_SD_T1_T2_, symObjAddr: 0x1B4C, symBinAddr: 0x100005DD0, symSize: 0x1D4 }
  - { offset: 0x19860, size: 0x8, addend: 0x0, symName: __ZN9__gnu_cxx5__ops14_Val_comp_iterISt7greaterIiEEclIiNS_17__normal_iteratorIPiSt6vectorIiSaIiEEEEEEbRT_T0_, symObjAddr: 0x1B0C, symBinAddr: 0x100005D90, symSize: 0x40 }
  - { offset: 0x198E2, size: 0x8, addend: 0x0, symName: __ZN9__gnu_cxx5__ops14_Val_comp_iterISt7greaterIiEEC1EONS0_15_Iter_comp_iterIS3_EE, symObjAddr: 0x1AE8, symBinAddr: 0x100005D6C, symSize: 0x24 }
  - { offset: 0x19918, size: 0x8, addend: 0x0, symName: __ZSt4moveIRN9__gnu_cxx5__ops15_Iter_comp_iterISt7greaterIiEEEEONSt16remove_referenceIT_E4typeEOS8_, symObjAddr: 0x1AD4, symBinAddr: 0x100005D58, symSize: 0x14 }
  - { offset: 0x19949, size: 0x8, addend: 0x0, symName: __ZSt22__copy_move_backward_aILb1EN9__gnu_cxx17__normal_iteratorIPiSt6vectorIiSaIiEEEES6_ET1_T0_S8_S7_, symObjAddr: 0x1A74, symBinAddr: 0x100005CF8, symSize: 0x60 }
  - { offset: 0x199AD, size: 0x8, addend: 0x0, symName: __ZSt12__miter_baseIN9__gnu_cxx17__normal_iteratorIPiSt6vectorIiSaIiEEEEET_S7_, symObjAddr: 0x1A60, symBinAddr: 0x100005CE4, symSize: 0x14 }
  - { offset: 0x199E2, size: 0x8, addend: 0x0, symName: __ZNKSt7greaterIiEclERKiS2_, symObjAddr: 0x1A2C, symBinAddr: 0x100005CB0, symSize: 0x34 }
  - { offset: 0x19A26, size: 0x8, addend: 0x0, symName: __ZSt9iter_swapIN9__gnu_cxx17__normal_iteratorIPiSt6vectorIiSaIiEEEES6_EvT_T0_, symObjAddr: 0x19E8, symBinAddr: 0x100005C6C, symSize: 0x44 }
  - { offset: 0x19A74, size: 0x8, addend: 0x0, symName: __ZN9__gnu_cxx17__normal_iteratorIPiSt6vectorIiSaIiEEEmmEv, symObjAddr: 0x19C0, symBinAddr: 0x100005C44, symSize: 0x28 }
  - { offset: 0x19A98, size: 0x8, addend: 0x0, symName: __ZSt10__pop_heapIN9__gnu_cxx17__normal_iteratorIPiSt6vectorIiSaIiEEEENS0_5__ops15_Iter_comp_iterISt7greaterIiEEEEvT_SC_SC_RT0_, symObjAddr: 0x192C, symBinAddr: 0x100005BB0, symSize: 0x94 }
  - { offset: 0x19B32, size: 0x8, addend: 0x0, symName: __ZN9__gnu_cxxltIPiSt6vectorIiSaIiEEEEbRKNS_17__normal_iteratorIT_T0_EESA_, symObjAddr: 0x18E8, symBinAddr: 0x100005B6C, symSize: 0x44 }
  - { offset: 0x19B7C, size: 0x8, addend: 0x0, symName: __ZSt11__make_heapIN9__gnu_cxx17__normal_iteratorIPiSt6vectorIiSaIiEEEENS0_5__ops15_Iter_comp_iterISt7greaterIiEEEEvT_SC_RT0_, symObjAddr: 0x180C, symBinAddr: 0x100005A90, symSize: 0xDC }
  - { offset: 0x19C42, size: 0x8, addend: 0x0, symName: __ZSt25__unguarded_linear_insertIN9__gnu_cxx17__normal_iteratorIPiSt6vectorIiSaIiEEEENS0_5__ops14_Val_comp_iterISt7greaterIiEEEEvT_T0_, symObjAddr: 0x1760, symBinAddr: 0x1000059E4, symSize: 0xAC }
  - { offset: 0x19CAC, size: 0x8, addend: 0x0, symName: __ZN9__gnu_cxx5__ops15__val_comp_iterISt7greaterIiEEENS0_14_Val_comp_iterIT_EENS0_15_Iter_comp_iterIS5_EE, symObjAddr: 0x1728, symBinAddr: 0x1000059AC, symSize: 0x38 }
  - { offset: 0x19CDD, size: 0x8, addend: 0x0, symName: __ZSt13move_backwardIN9__gnu_cxx17__normal_iteratorIPiSt6vectorIiSaIiEEEES6_ET0_T_S8_S7_, symObjAddr: 0x16E0, symBinAddr: 0x100005964, symSize: 0x48 }
  - { offset: 0x19D3D, size: 0x8, addend: 0x0, symName: __ZSt4moveIRiEONSt16remove_referenceIT_E4typeEOS2_, symObjAddr: 0x16CC, symBinAddr: 0x100005950, symSize: 0x14 }
  - { offset: 0x19D72, size: 0x8, addend: 0x0, symName: __ZNK9__gnu_cxx17__normal_iteratorIPiSt6vectorIiSaIiEEEdeEv, symObjAddr: 0x16B4, symBinAddr: 0x100005938, symSize: 0x18 }
  - { offset: 0x19D9A, size: 0x8, addend: 0x0, symName: __ZN9__gnu_cxx5__ops15_Iter_comp_iterISt7greaterIiEEclINS_17__normal_iteratorIPiSt6vectorIiSaIiEEEESB_EEbT_T0_, symObjAddr: 0x1668, symBinAddr: 0x1000058EC, symSize: 0x4C }
  - { offset: 0x19DF4, size: 0x8, addend: 0x0, symName: __ZN9__gnu_cxx17__normal_iteratorIPiSt6vectorIiSaIiEEEppEv, symObjAddr: 0x1640, symBinAddr: 0x1000058C4, symSize: 0x28 }
  - { offset: 0x19E18, size: 0x8, addend: 0x0, symName: __ZN9__gnu_cxxeqIPiSt6vectorIiSaIiEEEEbRKNS_17__normal_iteratorIT_T0_EESA_, symObjAddr: 0x15FC, symBinAddr: 0x100005880, symSize: 0x44 }
  - { offset: 0x19E62, size: 0x8, addend: 0x0, symName: __ZSt21__unguarded_partitionIN9__gnu_cxx17__normal_iteratorIPiSt6vectorIiSaIiEEEENS0_5__ops15_Iter_comp_iterISt7greaterIiEEEET_SC_SC_SC_T0_, symObjAddr: 0x1544, symBinAddr: 0x1000057C8, symSize: 0xB8 }
  - { offset: 0x19ECC, size: 0x8, addend: 0x0, symName: __ZSt22__move_median_to_firstIN9__gnu_cxx17__normal_iteratorIPiSt6vectorIiSaIiEEEENS0_5__ops15_Iter_comp_iterISt7greaterIiEEEEvT_SC_SC_SC_T0_, symObjAddr: 0x1434, symBinAddr: 0x1000056B8, symSize: 0x110 }
  - { offset: 0x19F4A, size: 0x8, addend: 0x0, symName: __ZNK9__gnu_cxx17__normal_iteratorIPiSt6vectorIiSaIiEEEmiEl, symObjAddr: 0x13F0, symBinAddr: 0x100005674, symSize: 0x44 }
  - { offset: 0x19F7E, size: 0x8, addend: 0x0, symName: __ZSt11__sort_heapIN9__gnu_cxx17__normal_iteratorIPiSt6vectorIiSaIiEEEENS0_5__ops15_Iter_comp_iterISt7greaterIiEEEEvT_SC_RT0_, symObjAddr: 0x1388, symBinAddr: 0x10000560C, symSize: 0x68 }
  - { offset: 0x19FD8, size: 0x8, addend: 0x0, symName: __ZSt13__heap_selectIN9__gnu_cxx17__normal_iteratorIPiSt6vectorIiSaIiEEEENS0_5__ops15_Iter_comp_iterISt7greaterIiEEEEvT_SC_SC_T0_, symObjAddr: 0x12EC, symBinAddr: 0x100005570, symSize: 0x9C }
  - { offset: 0x1A065, size: 0x8, addend: 0x0, symName: __ZSt14__relocate_a_1IiiENSt9enable_ifIXsrSt24__is_bitwise_relocatableIT_vE5valueEPS2_E4typeES4_S4_S4_RSaIT0_E, symObjAddr: 0x1288, symBinAddr: 0x10000550C, symSize: 0x64 }
  - { offset: 0x1A0DF, size: 0x8, addend: 0x0, symName: __ZSt12__niter_baseIPiET_S1_, symObjAddr: 0x1274, symBinAddr: 0x1000054F8, symSize: 0x14 }
  - { offset: 0x1A114, size: 0x8, addend: 0x0, symName: __ZNSt15__new_allocatorIiE8allocateEmPKv, symObjAddr: 0x11F8, symBinAddr: 0x10000547C, symSize: 0x7C }
  - { offset: 0x1A19E, size: 0x8, addend: 0x0, symName: __ZNKSt12_Vector_baseIiSaIiEE19_M_get_Tp_allocatorEv, symObjAddr: 0x11E4, symBinAddr: 0x100005468, symSize: 0x14 }
  - { offset: 0x1A1C2, size: 0x8, addend: 0x0, symName: __ZNSt6vectorIiSaIiEE11_S_max_sizeERKS0_, symObjAddr: 0x1190, symBinAddr: 0x100005414, symSize: 0x54 }
  - { offset: 0x1A275, size: 0x8, addend: 0x0, symName: __ZSt26__unguarded_insertion_sortIN9__gnu_cxx17__normal_iteratorIPiSt6vectorIiSaIiEEEENS0_5__ops15_Iter_comp_iterISt7greaterIiEEEEvT_SC_T0_, symObjAddr: 0x1124, symBinAddr: 0x1000053A8, symSize: 0x6C }
  - { offset: 0x1A2F2, size: 0x8, addend: 0x0, symName: __ZSt16__insertion_sortIN9__gnu_cxx17__normal_iteratorIPiSt6vectorIiSaIiEEEENS0_5__ops15_Iter_comp_iterISt7greaterIiEEEEvT_SC_T0_, symObjAddr: 0x1030, symBinAddr: 0x1000052B4, symSize: 0xF4 }
  - { offset: 0x1A396, size: 0x8, addend: 0x0, symName: __ZNK9__gnu_cxx17__normal_iteratorIPiSt6vectorIiSaIiEEEplEl, symObjAddr: 0xFF0, symBinAddr: 0x100005274, symSize: 0x40 }
  - { offset: 0x1A3CA, size: 0x8, addend: 0x0, symName: __ZSt27__unguarded_partition_pivotIN9__gnu_cxx17__normal_iteratorIPiSt6vectorIiSaIiEEEENS0_5__ops15_Iter_comp_iterISt7greaterIiEEEET_SC_SC_T0_, symObjAddr: 0xF54, symBinAddr: 0x1000051D8, symSize: 0x9C }
  - { offset: 0x1A434, size: 0x8, addend: 0x0, symName: __ZSt14__partial_sortIN9__gnu_cxx17__normal_iteratorIPiSt6vectorIiSaIiEEEENS0_5__ops15_Iter_comp_iterISt7greaterIiEEEEvT_SC_SC_T0_, symObjAddr: 0xF08, symBinAddr: 0x10000518C, symSize: 0x4C }
  - { offset: 0x1A49E, size: 0x8, addend: 0x0, symName: __ZSt12__relocate_aIPiS0_SaIiEET0_T_S3_S2_RT1_, symObjAddr: 0xEAC, symBinAddr: 0x100005130, symSize: 0x5C }
  - { offset: 0x1A539, size: 0x8, addend: 0x0, symName: __ZNK9__gnu_cxx17__normal_iteratorIPiSt6vectorIiSaIiEEE4baseEv, symObjAddr: 0xE98, symBinAddr: 0x10000511C, symSize: 0x14 }
  - { offset: 0x1A561, size: 0x8, addend: 0x0, symName: __ZNKSt6vectorIiSaIiEE8max_sizeEv, symObjAddr: 0xE78, symBinAddr: 0x1000050FC, symSize: 0x20 }
  - { offset: 0x1A585, size: 0x8, addend: 0x0, symName: __ZNSt12_Destroy_auxILb1EE9__destroyIPiEEvT_S3_, symObjAddr: 0xE60, symBinAddr: 0x1000050E4, symSize: 0x18 }
  - { offset: 0x1A5BC, size: 0x8, addend: 0x0, symName: __ZNSt15__new_allocatorIiE10deallocateEPim, symObjAddr: 0xE30, symBinAddr: 0x1000050B4, symSize: 0x30 }
  - { offset: 0x1A600, size: 0x8, addend: 0x0, symName: __ZSt13__countl_zeroImEiT_, symObjAddr: 0xDDC, symBinAddr: 0x100005060, symSize: 0x54 }
  - { offset: 0x1A694, size: 0x8, addend: 0x0, symName: __ZSt22__final_insertion_sortIN9__gnu_cxx17__normal_iteratorIPiSt6vectorIiSaIiEEEENS0_5__ops15_Iter_comp_iterISt7greaterIiEEEEvT_SC_T0_, symObjAddr: 0xD50, symBinAddr: 0x100004FD4, symSize: 0x8C }
  - { offset: 0x1A6EE, size: 0x8, addend: 0x0, symName: __ZSt16__introsort_loopIN9__gnu_cxx17__normal_iteratorIPiSt6vectorIiSaIiEEEElNS0_5__ops15_Iter_comp_iterISt7greaterIiEEEEvT_SC_T0_T1_, symObjAddr: 0xCA8, symBinAddr: 0x100004F2C, symSize: 0xA8 }
  - { offset: 0x1A784, size: 0x8, addend: 0x0, symName: __ZSt4__lgIlET_S0_, symObjAddr: 0xC84, symBinAddr: 0x100004F08, symSize: 0x24 }
  - { offset: 0x1A7B5, size: 0x8, addend: 0x0, symName: __ZN9__gnu_cxxneIPiSt6vectorIiSaIiEEEEbRKNS_17__normal_iteratorIT_T0_EESA_, symObjAddr: 0xC40, symBinAddr: 0x100004EC4, symSize: 0x44 }
  - { offset: 0x1A82B, size: 0x8, addend: 0x0, symName: __ZN9__gnu_cxx5__ops15_Iter_comp_iterISt7greaterIiEEC1ES3_, symObjAddr: 0xC1C, symBinAddr: 0x100004EA0, symSize: 0x24 }
  - { offset: 0x1A861, size: 0x8, addend: 0x0, symName: __ZSt4moveIRSt7greaterIiEEONSt16remove_referenceIT_E4typeEOS4_, symObjAddr: 0xC08, symBinAddr: 0x100004E8C, symSize: 0x14 }
  - { offset: 0x1A892, size: 0x8, addend: 0x0, symName: __ZNSt6vectorIiSaIiEE11_S_relocateEPiS2_S2_RS0_, symObjAddr: 0xBD4, symBinAddr: 0x100004E58, symSize: 0x34 }
  - { offset: 0x1A8EA, size: 0x8, addend: 0x0, symName: __ZSt12__to_addressIiEPT_S1_, symObjAddr: 0xBC0, symBinAddr: 0x100004E44, symSize: 0x14 }
  - { offset: 0x1A91F, size: 0x8, addend: 0x0, symName: __ZNSt12_Vector_baseIiSaIiEE11_M_allocateEm, symObjAddr: 0xB70, symBinAddr: 0x100004DF4, symSize: 0x50 }
  - { offset: 0x1A980, size: 0x8, addend: 0x0, symName: __ZN9__gnu_cxxmiIPiSt6vectorIiSaIiEEEENS_17__normal_iteratorIT_T0_E15difference_typeERKS8_SB_, symObjAddr: 0xB30, symBinAddr: 0x100004DB4, symSize: 0x40 }
  - { offset: 0x1A9CE, size: 0x8, addend: 0x0, symName: __ZNKSt6vectorIiSaIiEE12_M_check_lenEmPKc, symObjAddr: 0xA60, symBinAddr: 0x100004CE4, symSize: 0xD0 }
  - { offset: 0x1AA6A, size: 0x8, addend: 0x0, symName: __ZSt7forwardIRKiEOT_RNSt16remove_referenceIS2_E4typeE, symObjAddr: 0xA4C, symBinAddr: 0x100004CD0, symSize: 0x14 }
  - { offset: 0x1AA9B, size: 0x8, addend: 0x0, symName: __ZSt8_DestroyIPiEvT_S1_, symObjAddr: 0xA24, symBinAddr: 0x100004CA8, symSize: 0x28 }
  - { offset: 0x1AB24, size: 0x8, addend: 0x0, symName: __ZSt11__bit_widthImEiT_, symObjAddr: 0x9F4, symBinAddr: 0x100004C78, symSize: 0x30 }
  - { offset: 0x1AB66, size: 0x8, addend: 0x0, symName: __ZSt6__sortIN9__gnu_cxx17__normal_iteratorIPiSt6vectorIiSaIiEEEENS0_5__ops15_Iter_comp_iterISt7greaterIiEEEEvT_SC_T0_, symObjAddr: 0x984, symBinAddr: 0x100004C08, symSize: 0x70 }
  - { offset: 0x1ABC0, size: 0x8, addend: 0x0, symName: __ZN9__gnu_cxx5__ops16__iter_comp_iterISt7greaterIiEEENS0_15_Iter_comp_iterIT_EES5_, symObjAddr: 0x94C, symBinAddr: 0x100004BD0, symSize: 0x38 }
  - { offset: 0x1AC1E, size: 0x8, addend: 0x0, symName: __ZN9__gnu_cxx17__normal_iteratorIPiSt6vectorIiSaIiEEEC1ERKS1_, symObjAddr: 0x924, symBinAddr: 0x100004BA8, symSize: 0x28 }
  - { offset: 0x1AC4C, size: 0x8, addend: 0x0, symName: __ZNSt6vectorIiSaIiEE17_M_realloc_appendIJRKiEEEvDpOT_, symObjAddr: 0x768, symBinAddr: 0x1000049EC, symSize: 0x1BC }
  - { offset: 0x1ADC9, size: 0x8, addend: 0x0, symName: __ZZNSt6vectorIiSaIiEE17_M_realloc_appendIJRKiEEEvDpOT_EN6_GuardC1EPimRS0_, symObjAddr: 0x6C4, symBinAddr: 0x100004948, symSize: 0x44 }
  - { offset: 0x1AE0E, size: 0x8, addend: 0x0, symName: __ZZNSt6vectorIiSaIiEE17_M_realloc_appendIJRKiEEEvDpOT_EN6_GuardD1Ev, symObjAddr: 0x708, symBinAddr: 0x10000498C, symSize: 0x60 }
  - { offset: 0x1AF7E, size: 0x8, addend: 0x0, symName: __ZNSt12_Vector_baseIiSaIiEE19_M_get_Tp_allocatorEv, symObjAddr: 0x6B0, symBinAddr: 0x100004934, symSize: 0x14 }
  - { offset: 0x1AFA6, size: 0x8, addend: 0x0, symName: __ZNSt12_Vector_baseIiSaIiEE13_M_deallocateEPim, symObjAddr: 0x658, symBinAddr: 0x1000048DC, symSize: 0x58 }
  - { offset: 0x1B049, size: 0x8, addend: 0x0, symName: __ZNSt15__new_allocatorIiED2Ev, symObjAddr: 0x644, symBinAddr: 0x1000048C8, symSize: 0x14 }
  - { offset: 0x1B089, size: 0x8, addend: 0x0, symName: __ZNSt12_Vector_baseIiSaIiEE17_Vector_impl_dataC2Ev, symObjAddr: 0x618, symBinAddr: 0x10000489C, symSize: 0x2C }
  - { offset: 0x1B0C0, size: 0x8, addend: 0x0, symName: __ZSt3maxIiERKT_S2_S2_, symObjAddr: 0x5E0, symBinAddr: 0x100004864, symSize: 0x38 }
  - { offset: 0x1B105, size: 0x8, addend: 0x0, symName: __ZNSt6vectorIiSaIiEEixEm, symObjAddr: 0x5B8, symBinAddr: 0x10000483C, symSize: 0x28 }
  - { offset: 0x1B13D, size: 0x8, addend: 0x0, symName: __ZNKSt6vectorIiSaIiEE4sizeEv, symObjAddr: 0x590, symBinAddr: 0x100004814, symSize: 0x28 }
  - { offset: 0x1B161, size: 0x8, addend: 0x0, symName: __ZSt4sortIN9__gnu_cxx17__normal_iteratorIPiSt6vectorIiSaIiEEEESt7greaterIiEEvT_S9_T0_, symObjAddr: 0x550, symBinAddr: 0x1000047D4, symSize: 0x40 }
  - { offset: 0x1B1BF, size: 0x8, addend: 0x0, symName: __ZNSt6vectorIiSaIiEE3endEv, symObjAddr: 0x528, symBinAddr: 0x1000047AC, symSize: 0x28 }
  - { offset: 0x1B1E7, size: 0x8, addend: 0x0, symName: __ZNSt6vectorIiSaIiEE5beginEv, symObjAddr: 0x504, symBinAddr: 0x100004788, symSize: 0x24 }
  - { offset: 0x1B20F, size: 0x8, addend: 0x0, symName: __ZNSt6vectorIiSaIiEE9push_backERKi, symObjAddr: 0x43C, symBinAddr: 0x1000046C0, symSize: 0xC8 }
  - { offset: 0x1B2D8, size: 0x8, addend: 0x0, symName: __ZNSt6vectorIiSaIiEED1Ev, symObjAddr: 0x3E0, symBinAddr: 0x100004664, symSize: 0x5C }
  - { offset: 0x1B358, size: 0x8, addend: 0x0, symName: __ZNSt12_Vector_baseIiSaIiEED2Ev, symObjAddr: 0x390, symBinAddr: 0x100004614, symSize: 0x50 }
  - { offset: 0x1B3B8, size: 0x8, addend: 0x0, symName: __ZNSt12_Vector_baseIiSaIiEE12_Vector_implC1Ev, symObjAddr: 0x358, symBinAddr: 0x1000045DC, symSize: 0x38 }
  - { offset: 0x1B41F, size: 0x8, addend: 0x0, symName: __ZSt3maxImERKT_S2_S2_, symObjAddr: 0x320, symBinAddr: 0x1000045A4, symSize: 0x38 }
  - { offset: 0x1B468, size: 0x8, addend: 0x0, symName: _main, symObjAddr: 0x2A4, symBinAddr: 0x100004528, symSize: 0x7C }
  - { offset: 0x1B48B, size: 0x8, addend: 0x0, symName: __Z5solvev, symObjAddr: 0xBC, symBinAddr: 0x100004340, symSize: 0x1E8 }
  - { offset: 0x1B538, size: 0x8, addend: 0x0, symName: __ZNSt6vectorIiSaIiEEC1Ev, symObjAddr: 0x9C, symBinAddr: 0x100004320, symSize: 0x20 }
  - { offset: 0x1B578, size: 0x8, addend: 0x0, symName: __ZNSt12_Vector_baseIiSaIiEEC2Ev, symObjAddr: 0x7C, symBinAddr: 0x100004300, symSize: 0x20 }
  - { offset: 0x1B5C5, size: 0x8, addend: 0x0, symName: __ZNSt12_Vector_baseIiSaIiEE12_Vector_implD1Ev, symObjAddr: 0x50, symBinAddr: 0x1000042D4, symSize: 0x2C }
  - { offset: 0x1B609, size: 0x8, addend: 0x0, symName: __ZSt3minImERKT_S2_S2_, symObjAddr: 0x18, symBinAddr: 0x10000429C, symSize: 0x38 }
  - { offset: 0x1B656, size: 0x8, addend: 0x0, symName: __ZnwmPv, symObjAddr: 0x0, symBinAddr: 0x100004284, symSize: 0x18 }
...
