---
triple:          'arm64-apple-darwin'
binary-path:     '/Users/marcosjuarez/Documents/personal/Competitiva/PracticaCompetitiva/AgoDic2024/OU_6385'
relocations:
  - { offset: 0x1DEEE, size: 0x8, addend: 0x0, symName: __ZStL8__ioinit, symObjAddr: 0x8A554, symBinAddr: 0x10000C000, symSize: 0x0 }
  - { offset: 0x1E8C8, size: 0x8, addend: 0x0, symName: __ZNSt10_Head_baseILm0ERKcLb0EE7_M_headERS2_, symObjAddr: 0x1E30, symBinAddr: 0x100005D0C, symSize: 0x18 }
  - { offset: 0x1E8F1, size: 0x8, addend: 0x0, symName: __ZNSt11_Tuple_implILm0EJRKcEE7_M_headERS2_, symObjAddr: 0x1E14, symBinAddr: 0x100005CF0, symSize: 0x1C }
  - { offset: 0x1E91B, size: 0x8, addend: 0x0, symName: __ZSt12__get_helperILm0ERKcJEERT0_RSt11_Tuple_implIXT_EJS2_DpT1_EE, symObjAddr: 0x1DF8, symBinAddr: 0x100005CD4, symSize: 0x1C }
  - { offset: 0x1E965, size: 0x8, addend: 0x0, symName: __ZNK9__gnu_cxx16__aligned_bufferISt4pairIKciEE7_M_addrEv, symObjAddr: 0x1DE4, symBinAddr: 0x100005CC0, symSize: 0x14 }
  - { offset: 0x1E992, size: 0x8, addend: 0x0, symName: __ZSt7forwardIRKcEOT_RNSt16remove_referenceIS2_E4typeE, symObjAddr: 0x1DD0, symBinAddr: 0x100005CAC, symSize: 0x14 }
  - { offset: 0x1E9C4, size: 0x8, addend: 0x0, symName: __ZSt3getILm0EJRKcEERNSt13tuple_elementIXT_ESt5tupleIJDpT0_EEE4typeERS6_, symObjAddr: 0x1DB4, symBinAddr: 0x100005C90, symSize: 0x1C }
  - { offset: 0x1EA07, size: 0x8, addend: 0x0, symName: __ZNK9__gnu_cxx16__aligned_bufferISt4pairIKciEE6_M_ptrEv, symObjAddr: 0x1D98, symBinAddr: 0x100005C74, symSize: 0x1C }
  - { offset: 0x1EA31, size: 0x8, addend: 0x0, symName: __ZNSt15__new_allocatorIPNSt8__detail15_Hash_node_baseEE8allocateEmPKv, symObjAddr: 0x1D1C, symBinAddr: 0x100005BF8, symSize: 0x7C }
  - { offset: 0x1EB26, size: 0x8, addend: 0x0, symName: __ZNSt4pairIKciEC1IJRS0_EJLm0EEJEJEEERSt5tupleIJDpT_EERS4_IJDpT1_EESt12_Index_tupleIJXspT0_EEESD_IJXspT2_EEE, symObjAddr: 0x1CD4, symBinAddr: 0x100005BB0, symSize: 0x48 }
  - { offset: 0x1EB99, size: 0x8, addend: 0x0, symName: __ZNKSt8__detail21_Hashtable_ebo_helperILi0ESt8equal_toIcELb1EE7_M_cgetEv, symObjAddr: 0x1CC0, symBinAddr: 0x100005B9C, symSize: 0x14 }
  - { offset: 0x1EBBF, size: 0x8, addend: 0x0, symName: __ZSt11__addressofINSt8__detail10_Hash_nodeISt4pairIKciELb0EEEEPT_RS6_, symObjAddr: 0x1CAC, symBinAddr: 0x100005B88, symSize: 0x14 }
  - { offset: 0x1EBF8, size: 0x8, addend: 0x0, symName: __ZSt7forwardIRKSt4pairIKciEEOT_RNSt16remove_referenceIS5_E4typeE, symObjAddr: 0x1C98, symBinAddr: 0x100005B74, symSize: 0x14 }
  - { offset: 0x1EC40, size: 0x8, addend: 0x0, symName: __ZSt12__to_addressIPNSt8__detail15_Hash_node_baseEEPT_S4_, symObjAddr: 0x1C84, symBinAddr: 0x100005B60, symSize: 0x14 }
  - { offset: 0x1ECE5, size: 0x8, addend: 0x0, symName: __ZNSt4pairIKciEC1IJRS0_EJEEESt21piecewise_construct_tSt5tupleIJDpT_EES5_IJDpT0_EE, symObjAddr: 0x1C48, symBinAddr: 0x100005B24, symSize: 0x3C }
  - { offset: 0x1ED5F, size: 0x8, addend: 0x0, symName: __ZNSt11_Tuple_implILm0EJRKcEEC2EOS2_, symObjAddr: 0x1C20, symBinAddr: 0x100005AFC, symSize: 0x28 }
  - { offset: 0x1ED8E, size: 0x8, addend: 0x0, symName: __ZNKSt8equal_toIcEclERKcS2_, symObjAddr: 0x1BEC, symBinAddr: 0x100005AC8, symSize: 0x34 }
  - { offset: 0x1EDDA, size: 0x8, addend: 0x0, symName: __ZNKSt8__detail15_Hashtable_baseIcSt4pairIKciENS_10_Select1stESt8equal_toIcESt4hashIcENS_18_Mod_range_hashingENS_20_Default_ranged_hashENS_17_Hashtable_traitsILb0ELb0ELb1EEEE5_M_eqEv, symObjAddr: 0x1BD0, symBinAddr: 0x100005AAC, symSize: 0x1C }
  - { offset: 0x1EE00, size: 0x8, addend: 0x0, symName: __ZSt11__addressofIPNSt8__detail15_Hash_node_baseEEPT_RS3_, symObjAddr: 0x1BBC, symBinAddr: 0x100005A98, symSize: 0x14 }
  - { offset: 0x1EE32, size: 0x8, addend: 0x0, symName: __ZSt9addressofINSt8__detail10_Hash_nodeISt4pairIKciELb0EEEEPT_RS6_, symObjAddr: 0x1BA0, symBinAddr: 0x100005A7C, symSize: 0x1C }
  - { offset: 0x1EE73, size: 0x8, addend: 0x0, symName: __ZNKSt8__detail10_Select1stclIRKSt4pairIKciEEEONS0_10__1st_typeIT_E4typeEOS8_, symObjAddr: 0x1B80, symBinAddr: 0x100005A5C, symSize: 0x20 }
  - { offset: 0x1EECC, size: 0x8, addend: 0x0, symName: __ZNSt8__detail16_Hashtable_allocISaINS_10_Hash_nodeISt4pairIKciELb0EEEEE19_M_allocate_bucketsEm, symObjAddr: 0x1AD0, symBinAddr: 0x1000059AC, symSize: 0xB0 }
  - { offset: 0x1EFF3, size: 0x8, addend: 0x0, symName: __ZNSt15__new_allocatorINSt8__detail10_Hash_nodeISt4pairIKciELb0EEEE10deallocateEPS5_m, symObjAddr: 0x1AA0, symBinAddr: 0x10000597C, symSize: 0x30 }
  - { offset: 0x1F0C0, size: 0x8, addend: 0x0, symName: __ZNSt5tupleIJRKcEEC1EOS2_, symObjAddr: 0x1A78, symBinAddr: 0x100005954, symSize: 0x28 }
  - { offset: 0x1F0EF, size: 0x8, addend: 0x0, symName: __ZNSt15__new_allocatorINSt8__detail10_Hash_nodeISt4pairIKciELb0EEEE8allocateEmPKv, symObjAddr: 0x19FC, symBinAddr: 0x1000058D8, symSize: 0x7C }
  - { offset: 0x1F17F, size: 0x8, addend: 0x0, symName: __ZN9__gnu_cxx16__aligned_bufferISt4pairIKciEE7_M_addrEv, symObjAddr: 0x19E8, symBinAddr: 0x1000058C4, symSize: 0x14 }
  - { offset: 0x1F1A9, size: 0x8, addend: 0x0, symName: __ZNKSt8__detail15_Hashtable_baseIcSt4pairIKciENS_10_Select1stESt8equal_toIcESt4hashIcENS_18_Mod_range_hashingENS_20_Default_ranged_hashENS_17_Hashtable_traitsILb0ELb0ELb1EEEE13_M_key_equalsERS2_RKNS_16_Hash_node_valueIS3_Lb0EEE, symObjAddr: 0x197C, symBinAddr: 0x100005858, symSize: 0x6C }
  - { offset: 0x1F239, size: 0x8, addend: 0x0, symName: __ZNSt8__detail15_Hashtable_baseIcSt4pairIKciENS_10_Select1stESt8equal_toIcESt4hashIcENS_18_Mod_range_hashingENS_20_Default_ranged_hashENS_17_Hashtable_traitsILb0ELb0ELb1EEEE9_S_equalsEmRKNS_21_Hash_node_code_cacheILb0EEE, symObjAddr: 0x1964, symBinAddr: 0x100005840, symSize: 0x18 }
  - { offset: 0x1F268, size: 0x8, addend: 0x0, symName: __ZNSt15__new_allocatorIPNSt8__detail15_Hash_node_baseEE10deallocateEPS2_m, symObjAddr: 0x1934, symBinAddr: 0x100005810, symSize: 0x30 }
  - { offset: 0x1F2D6, size: 0x8, addend: 0x0, symName: __ZNSt15__new_allocatorIPNSt8__detail15_Hash_node_baseEED2Ev, symObjAddr: 0x1920, symBinAddr: 0x1000057FC, symSize: 0x14 }
  - { offset: 0x1F30E, size: 0x8, addend: 0x0, symName: __ZSt9addressofIPNSt8__detail15_Hash_node_baseEEPT_RS3_, symObjAddr: 0x1904, symBinAddr: 0x1000057E0, symSize: 0x1C }
  - { offset: 0x1F340, size: 0x8, addend: 0x0, symName: __ZNSt19__ptr_traits_ptr_toIPNSt8__detail10_Hash_nodeISt4pairIKciELb0EEES5_Lb0EE10pointer_toERS5_, symObjAddr: 0x18E8, symBinAddr: 0x1000057C4, symSize: 0x1C }
  - { offset: 0x1F399, size: 0x8, addend: 0x0, symName: __ZNSt8__detail21_Hashtable_ebo_helperILi0ESaINS_10_Hash_nodeISt4pairIKciELb0EEEELb1EE6_M_getEv, symObjAddr: 0x18D4, symBinAddr: 0x1000057B0, symSize: 0x14 }
  - { offset: 0x1F3EB, size: 0x8, addend: 0x0, symName: __ZNSt8__detail19_Node_iterator_baseISt4pairIKciELb0EEC2EPNS_10_Hash_nodeIS3_Lb0EEE, symObjAddr: 0x18B0, symBinAddr: 0x10000578C, symSize: 0x24 }
  - { offset: 0x1F41A, size: 0x8, addend: 0x0, symName: __ZNKSt8__detail15_Hash_code_baseIcSt4pairIKciENS_10_Select1stESt4hashIcENS_18_Mod_range_hashingENS_20_Default_ranged_hashELb0EE15_M_bucket_indexERKNS_16_Hash_node_valueIS3_Lb0EEEm, symObjAddr: 0x184C, symBinAddr: 0x100005728, symSize: 0x64 }
  - { offset: 0x1F4AE, size: 0x8, addend: 0x0, symName: __ZNSt10_HashtableIcSt4pairIKciESaIS2_ENSt8__detail10_Select1stESt8equal_toIcESt4hashIcENS4_18_Mod_range_hashingENS4_20_Default_ranged_hashENS4_20_Prime_rehash_policyENS4_17_Hashtable_traitsILb0ELb0ELb1EEEE19_M_allocate_bucketsEm, symObjAddr: 0x17F4, symBinAddr: 0x1000056D0, symSize: 0x58 }
  - { offset: 0x1F4E5, size: 0x8, addend: 0x0, symName: __ZSt11__addressofINSt8__detail20_Prime_rehash_policyEEPT_RS2_, symObjAddr: 0x17E0, symBinAddr: 0x1000056BC, symSize: 0x14 }
  - { offset: 0x1F5A1, size: 0x8, addend: 0x0, symName: __ZSt12__to_addressINSt8__detail10_Hash_nodeISt4pairIKciELb0EEEEPT_S7_, symObjAddr: 0x17CC, symBinAddr: 0x1000056A8, symSize: 0x14 }
  - { offset: 0x1F622, size: 0x8, addend: 0x0, symName: __ZNSt10_Head_baseILm0ERKcLb0EEC2ES1_, symObjAddr: 0x17A8, symBinAddr: 0x100005684, symSize: 0x24 }
  - { offset: 0x1F651, size: 0x8, addend: 0x0, symName: __ZN9__gnu_cxx16__aligned_bufferISt4pairIKciEE6_M_ptrEv, symObjAddr: 0x178C, symBinAddr: 0x100005668, symSize: 0x1C }
  - { offset: 0x1F67B, size: 0x8, addend: 0x0, symName: __ZNKSt10_HashtableIcSt4pairIKciESaIS2_ENSt8__detail10_Select1stESt8equal_toIcESt4hashIcENS4_18_Mod_range_hashingENS4_20_Default_ranged_hashENS4_20_Prime_rehash_policyENS4_17_Hashtable_traitsILb0ELb0ELb1EEEE15_M_bucket_indexERKNS4_16_Hash_node_valueIS2_Lb0EEE, symObjAddr: 0x175C, symBinAddr: 0x100005638, symSize: 0x30 }
  - { offset: 0x1F6B6, size: 0x8, addend: 0x0, symName: __ZNKSt8__detail15_Hashtable_baseIcSt4pairIKciENS_10_Select1stESt8equal_toIcESt4hashIcENS_18_Mod_range_hashingENS_20_Default_ranged_hashENS_17_Hashtable_traitsILb0ELb0ELb1EEEE9_M_equalsERS2_mRKNS_16_Hash_node_valueIS3_Lb0EEE, symObjAddr: 0x16FC, symBinAddr: 0x1000055D8, symSize: 0x60 }
  - { offset: 0x1F713, size: 0x8, addend: 0x0, symName: __ZNKSt8__detail21_Hashtable_ebo_helperILi1ESt4hashIcELb1EE7_M_cgetEv, symObjAddr: 0x16E8, symBinAddr: 0x1000055C4, symSize: 0x14 }
  - { offset: 0x1F7AF, size: 0x8, addend: 0x0, symName: __ZNSt19__ptr_traits_ptr_toIPPNSt8__detail15_Hash_node_baseES2_Lb0EE10pointer_toERS2_, symObjAddr: 0x16CC, symBinAddr: 0x1000055A8, symSize: 0x1C }
  - { offset: 0x1F7DC, size: 0x8, addend: 0x0, symName: __ZNSt8__detail16_Hashtable_allocISaINS_10_Hash_nodeISt4pairIKciELb0EEEEE22_M_deallocate_node_ptrEPS5_, symObjAddr: 0x1674, symBinAddr: 0x100005550, symSize: 0x58 }
  - { offset: 0x1F88B, size: 0x8, addend: 0x0, symName: __ZNSt8__detail16_Hashtable_allocISaINS_10_Hash_nodeISt4pairIKciELb0EEEEE17_M_node_allocatorEv, symObjAddr: 0x1658, symBinAddr: 0x100005534, symSize: 0x1C }
  - { offset: 0x1F8DD, size: 0x8, addend: 0x0, symName: __ZNSt8__detail14_Node_iteratorISt4pairIKciELb0ELb0EEC1EPNS_10_Hash_nodeIS3_Lb0EEE, symObjAddr: 0x1630, symBinAddr: 0x10000550C, symSize: 0x28 }
  - { offset: 0x1F90C, size: 0x8, addend: 0x0, symName: __ZNSt10_HashtableIcSt4pairIKciESaIS2_ENSt8__detail10_Select1stESt8equal_toIcESt4hashIcENS4_18_Mod_range_hashingENS4_20_Default_ranged_hashENS4_20_Prime_rehash_policyENS4_17_Hashtable_traitsILb0ELb0ELb1EEEE22_M_insert_bucket_beginEmPNS4_10_Hash_nodeIS2_Lb0EEE, symObjAddr: 0x1524, symBinAddr: 0x100005400, symSize: 0x10C }
  - { offset: 0x1F958, size: 0x8, addend: 0x0, symName: __ZNKSt8__detail15_Hash_code_baseIcSt4pairIKciENS_10_Select1stESt4hashIcENS_18_Mod_range_hashingENS_20_Default_ranged_hashELb0EE13_M_store_codeERNS_21_Hash_node_code_cacheILb0EEEm, symObjAddr: 0x1508, symBinAddr: 0x1000053E4, symSize: 0x1C }
  - { offset: 0x1F994, size: 0x8, addend: 0x0, symName: __ZNSt10_HashtableIcSt4pairIKciESaIS2_ENSt8__detail10_Select1stESt8equal_toIcESt4hashIcENS4_18_Mod_range_hashingENS4_20_Default_ranged_hashENS4_20_Prime_rehash_policyENS4_17_Hashtable_traitsILb0ELb0ELb1EEEE9_M_rehashEmSt17integral_constantIbLb1EE, symObjAddr: 0x139C, symBinAddr: 0x100005278, symSize: 0x16C }
  - { offset: 0x1FA65, size: 0x8, addend: 0x0, symName: __ZNSt8__detail17_RehashStateGuardINS_20_Prime_rehash_policyEED1Ev, symObjAddr: 0x1358, symBinAddr: 0x100005234, symSize: 0x44 }
  - { offset: 0x1FAB3, size: 0x8, addend: 0x0, symName: __ZNSt8__detail17_RehashStateGuardINS_20_Prime_rehash_policyEEC1ERS1_, symObjAddr: 0x1314, symBinAddr: 0x1000051F0, symSize: 0x44 }
  - { offset: 0x1FAE2, size: 0x8, addend: 0x0, symName: __ZNSt8__detail16_Hashtable_allocISaINS_10_Hash_nodeISt4pairIKciELb0EEEEE16_M_allocate_nodeIJRKSt21piecewise_construct_tSt5tupleIJRS3_EESC_IJEEEEEPS5_DpOT_, symObjAddr: 0x1128, symBinAddr: 0x100005004, symSize: 0x1EC }
  - { offset: 0x1FCB2, size: 0x8, addend: 0x0, symName: __ZNSt8__detail10_Hash_nodeISt4pairIKciELb0EEC1Ev, symObjAddr: 0x1108, symBinAddr: 0x100004FE4, symSize: 0x20 }
  - { offset: 0x1FCDB, size: 0x8, addend: 0x0, symName: __ZSt7forwardISt5tupleIJEEEOT_RNSt16remove_referenceIS2_E4typeE, symObjAddr: 0x10F4, symBinAddr: 0x100004FD0, symSize: 0x14 }
  - { offset: 0x1FD14, size: 0x8, addend: 0x0, symName: __ZSt7forwardISt5tupleIJRKcEEEOT_RNSt16remove_referenceIS4_E4typeE, symObjAddr: 0x10E0, symBinAddr: 0x100004FBC, symSize: 0x14 }
  - { offset: 0x1FD4D, size: 0x8, addend: 0x0, symName: __ZSt7forwardIRKSt21piecewise_construct_tEOT_RNSt16remove_referenceIS3_E4typeE, symObjAddr: 0x10CC, symBinAddr: 0x100004FA8, symSize: 0x14 }
  - { offset: 0x1FDAB, size: 0x8, addend: 0x0, symName: __ZNSt11_Tuple_implILm0EJRKcEEC2ES1_, symObjAddr: 0x10A4, symBinAddr: 0x100004F80, symSize: 0x28 }
  - { offset: 0x1FDF0, size: 0x8, addend: 0x0, symName: __ZNKSt10_HashtableIcSt4pairIKciESaIS2_ENSt8__detail10_Select1stESt8equal_toIcESt4hashIcENS4_18_Mod_range_hashingENS4_20_Default_ranged_hashENS4_20_Prime_rehash_policyENS4_17_Hashtable_traitsILb0ELb0ELb1EEEE19_M_find_before_nodeEmRS1_m, symObjAddr: 0xFA8, symBinAddr: 0x100004E84, symSize: 0xFC }
  - { offset: 0x1FE82, size: 0x8, addend: 0x0, symName: __ZNKSt8__detail15_Hash_code_baseIcSt4pairIKciENS_10_Select1stESt4hashIcENS_18_Mod_range_hashingENS_20_Default_ranged_hashELb0EE15_M_bucket_indexEmm, symObjAddr: 0xF7C, symBinAddr: 0x100004E58, symSize: 0x2C }
  - { offset: 0x1FECE, size: 0x8, addend: 0x0, symName: __ZNKSt8__detail15_Hash_code_baseIcSt4pairIKciENS_10_Select1stESt4hashIcENS_18_Mod_range_hashingENS_20_Default_ranged_hashELb0EE7_M_hashEv, symObjAddr: 0xF60, symBinAddr: 0x100004E3C, symSize: 0x1C }
  - { offset: 0x1FEF8, size: 0x8, addend: 0x0, symName: __ZNSt8__detail16_Hashtable_allocISaINS_10_Hash_nodeISt4pairIKciELb0EEEEE21_M_deallocate_bucketsEPPNS_15_Hash_node_baseEm, symObjAddr: 0xEE8, symBinAddr: 0x100004DC4, symSize: 0x78 }
  - { offset: 0x20008, size: 0x8, addend: 0x0, symName: __ZNKSt10_HashtableIcSt4pairIKciESaIS2_ENSt8__detail10_Select1stESt8equal_toIcESt4hashIcENS4_18_Mod_range_hashingENS4_20_Default_ranged_hashENS4_20_Prime_rehash_policyENS4_17_Hashtable_traitsILb0ELb0ELb1EEEE21_M_uses_single_bucketEPPNS4_15_Hash_node_baseE, symObjAddr: 0xEAC, symBinAddr: 0x100004D88, symSize: 0x3C }
  - { offset: 0x20043, size: 0x8, addend: 0x0, symName: __ZNSt8__detail16_Hashtable_allocISaINS_10_Hash_nodeISt4pairIKciELb0EEEEE18_M_deallocate_nodeEPS5_, symObjAddr: 0xE38, symBinAddr: 0x100004D14, symSize: 0x74 }
  - { offset: 0x200FC, size: 0x8, addend: 0x0, symName: __ZNKSt8__detail10_Hash_nodeISt4pairIKciELb0EE7_M_nextEv, symObjAddr: 0xE20, symBinAddr: 0x100004CFC, symSize: 0x18 }
  - { offset: 0x20122, size: 0x8, addend: 0x0, symName: __ZNSt12_Destroy_auxILb1EE9__destroyIPcEEvT_S3_, symObjAddr: 0xE08, symBinAddr: 0x100004CE4, symSize: 0x18 }
  - { offset: 0x2015A, size: 0x8, addend: 0x0, symName: __ZNSt15__new_allocatorIcE10deallocateEPcm, symObjAddr: 0xDE0, symBinAddr: 0x100004CBC, symSize: 0x28 }
  - { offset: 0x201A4, size: 0x8, addend: 0x0, symName: __ZNKSt8__detail14_Node_iteratorISt4pairIKciELb0ELb0EEptEv, symObjAddr: 0xDB0, symBinAddr: 0x100004C8C, symSize: 0x30 }
  - { offset: 0x201F2, size: 0x8, addend: 0x0, symName: __ZNSt10_HashtableIcSt4pairIKciESaIS2_ENSt8__detail10_Select1stESt8equal_toIcESt4hashIcENS4_18_Mod_range_hashingENS4_20_Default_ranged_hashENS4_20_Prime_rehash_policyENS4_17_Hashtable_traitsILb0ELb0ELb1EEEE21_M_insert_unique_nodeEmmPNS4_10_Hash_nodeIS2_Lb0EEEm, symObjAddr: 0xCA0, symBinAddr: 0x100004B7C, symSize: 0x110 }
  - { offset: 0x202A9, size: 0x8, addend: 0x0, symName: __ZNSt10_HashtableIcSt4pairIKciESaIS2_ENSt8__detail10_Select1stESt8equal_toIcESt4hashIcENS4_18_Mod_range_hashingENS4_20_Default_ranged_hashENS4_20_Prime_rehash_policyENS4_17_Hashtable_traitsILb0ELb0ELb1EEEE12_Scoped_nodeD1Ev, symObjAddr: 0xC5C, symBinAddr: 0x100004B38, symSize: 0x44 }
  - { offset: 0x20322, size: 0x8, addend: 0x0, symName: __ZNSt10_HashtableIcSt4pairIKciESaIS2_ENSt8__detail10_Select1stESt8equal_toIcESt4hashIcENS4_18_Mod_range_hashingENS4_20_Default_ranged_hashENS4_20_Prime_rehash_policyENS4_17_Hashtable_traitsILb0ELb0ELb1EEEE12_Scoped_nodeC1IJRKSt21piecewise_construct_tSt5tupleIJRS1_EESL_IJEEEEEPNS4_16_Hashtable_allocISaINS4_10_Hash_nodeIS2_Lb0EEEEEEDpOT_, symObjAddr: 0xBD4, symBinAddr: 0x100004AB0, symSize: 0x88 }
  - { offset: 0x203BA, size: 0x8, addend: 0x0, symName: __ZNSt5tupleIJRKcEEC1ILb1ELb1EEES1_, symObjAddr: 0xBAC, symBinAddr: 0x100004A88, symSize: 0x28 }
  - { offset: 0x20409, size: 0x8, addend: 0x0, symName: __ZNKSt10_HashtableIcSt4pairIKciESaIS2_ENSt8__detail10_Select1stESt8equal_toIcESt4hashIcENS4_18_Mod_range_hashingENS4_20_Default_ranged_hashENS4_20_Prime_rehash_policyENS4_17_Hashtable_traitsILb0ELb0ELb1EEEE12_M_find_nodeEmRS1_m, symObjAddr: 0xB58, symBinAddr: 0x100004A34, symSize: 0x54 }
  - { offset: 0x20477, size: 0x8, addend: 0x0, symName: __ZNKSt10_HashtableIcSt4pairIKciESaIS2_ENSt8__detail10_Select1stESt8equal_toIcESt4hashIcENS4_18_Mod_range_hashingENS4_20_Default_ranged_hashENS4_20_Prime_rehash_policyENS4_17_Hashtable_traitsILb0ELb0ELb1EEEE15_M_bucket_indexEm, symObjAddr: 0xB28, symBinAddr: 0x100004A04, symSize: 0x30 }
  - { offset: 0x204B2, size: 0x8, addend: 0x0, symName: __ZNKSt8__detail15_Hash_code_baseIcSt4pairIKciENS_10_Select1stESt4hashIcENS_18_Mod_range_hashingENS_20_Default_ranged_hashELb0EE12_M_hash_codeERS2_, symObjAddr: 0xAF0, symBinAddr: 0x1000049CC, symSize: 0x38 }
  - { offset: 0x204ED, size: 0x8, addend: 0x0, symName: __ZNSt10_HashtableIcSt4pairIKciESaIS2_ENSt8__detail10_Select1stESt8equal_toIcESt4hashIcENS4_18_Mod_range_hashingENS4_20_Default_ranged_hashENS4_20_Prime_rehash_policyENS4_17_Hashtable_traitsILb0ELb0ELb1EEEE21_M_deallocate_bucketsEPPNS4_15_Hash_node_baseEm, symObjAddr: 0xAA4, symBinAddr: 0x100004980, symSize: 0x4C }
  - { offset: 0x20539, size: 0x8, addend: 0x0, symName: __ZNSt8__detail16_Hashtable_allocISaINS_10_Hash_nodeISt4pairIKciELb0EEEEE19_M_deallocate_nodesEPS5_, symObjAddr: 0xA54, symBinAddr: 0x100004930, symSize: 0x50 }
  - { offset: 0x20598, size: 0x8, addend: 0x0, symName: __ZNKSt10_HashtableIcSt4pairIKciESaIS2_ENSt8__detail10_Select1stESt8equal_toIcESt4hashIcENS4_18_Mod_range_hashingENS4_20_Default_ranged_hashENS4_20_Prime_rehash_policyENS4_17_Hashtable_traitsILb0ELb0ELb1EEEE8_M_beginEv, symObjAddr: 0xA3C, symBinAddr: 0x100004918, symSize: 0x18 }
  - { offset: 0x205D4, size: 0x8, addend: 0x0, symName: __ZSt8_DestroyIPcEvT_S1_, symObjAddr: 0xA14, symBinAddr: 0x1000048F0, symSize: 0x28 }
  - { offset: 0x2064C, size: 0x8, addend: 0x0, symName: __ZNSt8__detail9_Map_baseIcSt4pairIKciESaIS3_ENS_10_Select1stESt8equal_toIcESt4hashIcENS_18_Mod_range_hashingENS_20_Default_ranged_hashENS_20_Prime_rehash_policyENS_17_Hashtable_traitsILb0ELb0ELb1EEELb1EEixERS2_, symObjAddr: 0x8F4, symBinAddr: 0x1000047D0, symSize: 0x120 }
  - { offset: 0x20752, size: 0x8, addend: 0x0, symName: __ZNSt10_HashtableIcSt4pairIKciESaIS2_ENSt8__detail10_Select1stESt8equal_toIcESt4hashIcENS4_18_Mod_range_hashingENS4_20_Default_ranged_hashENS4_20_Prime_rehash_policyENS4_17_Hashtable_traitsILb0ELb0ELb1EEEE21_M_deallocate_bucketsEv, symObjAddr: 0x8C0, symBinAddr: 0x10000479C, symSize: 0x34 }
  - { offset: 0x2077C, size: 0x8, addend: 0x0, symName: __ZNSt10_HashtableIcSt4pairIKciESaIS2_ENSt8__detail10_Select1stESt8equal_toIcESt4hashIcENS4_18_Mod_range_hashingENS4_20_Default_ranged_hashENS4_20_Prime_rehash_policyENS4_17_Hashtable_traitsILb0ELb0ELb1EEEE5clearEv, symObjAddr: 0x860, symBinAddr: 0x10000473C, symSize: 0x60 }
  - { offset: 0x207CA, size: 0x8, addend: 0x0, symName: __ZNSt15__new_allocatorINSt8__detail10_Hash_nodeISt4pairIKciELb0EEEED2Ev, symObjAddr: 0x84C, symBinAddr: 0x100004728, symSize: 0x14 }
  - { offset: 0x20841, size: 0x8, addend: 0x0, symName: __ZNSt12_Vector_baseIcSaIcEE19_M_get_Tp_allocatorEv, symObjAddr: 0x838, symBinAddr: 0x100004714, symSize: 0x14 }
  - { offset: 0x2086B, size: 0x8, addend: 0x0, symName: __ZNSt12_Vector_baseIcSaIcEE13_M_deallocateEPcm, symObjAddr: 0x7E0, symBinAddr: 0x1000046BC, symSize: 0x58 }
  - { offset: 0x20907, size: 0x8, addend: 0x0, symName: __ZNSt12_Vector_baseIcSaIcEE17_Vector_impl_dataC2Ev, symObjAddr: 0x7B4, symBinAddr: 0x100004690, symSize: 0x2C }
  - { offset: 0x20951, size: 0x8, addend: 0x0, symName: __ZNSt15__new_allocatorIcED2Ev, symObjAddr: 0x7A0, symBinAddr: 0x10000467C, symSize: 0x14 }
  - { offset: 0x2098D, size: 0x8, addend: 0x0, symName: __ZNSt13unordered_mapIciSt4hashIcESt8equal_toIcESaISt4pairIKciEEEixERS5_, symObjAddr: 0x77C, symBinAddr: 0x100004658, symSize: 0x24 }
  - { offset: 0x209EC, size: 0x8, addend: 0x0, symName: __ZNSt10_HashtableIcSt4pairIKciESaIS2_ENSt8__detail10_Select1stESt8equal_toIcESt4hashIcENS4_18_Mod_range_hashingENS4_20_Default_ranged_hashENS4_20_Prime_rehash_policyENS4_17_Hashtable_traitsILb0ELb0ELb1EEEED1Ev, symObjAddr: 0x74C, symBinAddr: 0x100004628, symSize: 0x30 }
  - { offset: 0x20A4C, size: 0x8, addend: 0x0, symName: __ZNSt8__detail21_Hashtable_ebo_helperILi0ESaINS_10_Hash_nodeISt4pairIKciELb0EEEELb1EEC2Ev, symObjAddr: 0x720, symBinAddr: 0x1000045FC, symSize: 0x2C }
  - { offset: 0x20AD3, size: 0x8, addend: 0x0, symName: __ZNSt8__detail21_Hashtable_ebo_helperILi0ESt8equal_toIcELb1EEC2Ev, symObjAddr: 0x70C, symBinAddr: 0x1000045E8, symSize: 0x14 }
  - { offset: 0x20B13, size: 0x8, addend: 0x0, symName: __ZNSt8__detail21_Hashtable_ebo_helperILi1ESt4hashIcELb1EEC2Ev, symObjAddr: 0x6F8, symBinAddr: 0x1000045D4, symSize: 0x14 }
  - { offset: 0x20B5D, size: 0x8, addend: 0x0, symName: __ZNSt6vectorIcSaIcEED1Ev, symObjAddr: 0x69C, symBinAddr: 0x100004578, symSize: 0x5C }
  - { offset: 0x20BDD, size: 0x8, addend: 0x0, symName: __ZNSt12_Vector_baseIcSaIcEED2Ev, symObjAddr: 0x650, symBinAddr: 0x10000452C, symSize: 0x4C }
  - { offset: 0x20C1D, size: 0x8, addend: 0x0, symName: __ZNSt12_Vector_baseIcSaIcEE12_Vector_implC1Ev, symObjAddr: 0x618, symBinAddr: 0x1000044F4, symSize: 0x38 }
  - { offset: 0x20CC2, size: 0x8, addend: 0x0, symName: _main, symObjAddr: 0x5B8, symBinAddr: 0x100004494, symSize: 0x60 }
  - { offset: 0x20CE1, size: 0x8, addend: 0x0, symName: __Z5solvev, symObjAddr: 0x2EC, symBinAddr: 0x1000041C8, symSize: 0x2CC }
  - { offset: 0x20DAA, size: 0x8, addend: 0x0, symName: __ZNSt13unordered_mapIciSt4hashIcESt8equal_toIcESaISt4pairIKciEEED1Ev, symObjAddr: 0x2CC, symBinAddr: 0x1000041A8, symSize: 0x20 }
  - { offset: 0x20DEA, size: 0x8, addend: 0x0, symName: __ZNSt13unordered_mapIciSt4hashIcESt8equal_toIcESaISt4pairIKciEEEC1Ev, symObjAddr: 0x2AC, symBinAddr: 0x100004188, symSize: 0x20 }
  - { offset: 0x20E2A, size: 0x8, addend: 0x0, symName: __ZNSt10_HashtableIcSt4pairIKciESaIS2_ENSt8__detail10_Select1stESt8equal_toIcESt4hashIcENS4_18_Mod_range_hashingENS4_20_Default_ranged_hashENS4_20_Prime_rehash_policyENS4_17_Hashtable_traitsILb0ELb0ELb1EEEEC1Ev, symObjAddr: 0x23C, symBinAddr: 0x100004118, symSize: 0x70 }
  - { offset: 0x20E78, size: 0x8, addend: 0x0, symName: __ZNSt8__detail16_Hashtable_allocISaINS_10_Hash_nodeISt4pairIKciELb0EEEEED2Ev, symObjAddr: 0x21C, symBinAddr: 0x1000040F8, symSize: 0x20 }
  - { offset: 0x20EB8, size: 0x8, addend: 0x0, symName: __ZNSt8__detail16_Hashtable_allocISaINS_10_Hash_nodeISt4pairIKciELb0EEEEEC2Ev, symObjAddr: 0x1FC, symBinAddr: 0x1000040D8, symSize: 0x20 }
  - { offset: 0x20F06, size: 0x8, addend: 0x0, symName: __ZNSt8__detail21_Hashtable_ebo_helperILi0ESaINS_10_Hash_nodeISt4pairIKciELb0EEEELb1EED2Ev, symObjAddr: 0x1D0, symBinAddr: 0x1000040AC, symSize: 0x2C }
  - { offset: 0x20F6A, size: 0x8, addend: 0x0, symName: __ZNSt8__detail15_Hashtable_baseIcSt4pairIKciENS_10_Select1stESt8equal_toIcESt4hashIcENS_18_Mod_range_hashingENS_20_Default_ranged_hashENS_17_Hashtable_traitsILb0ELb0ELb1EEEEC2Ev, symObjAddr: 0x1A8, symBinAddr: 0x100004084, symSize: 0x28 }
  - { offset: 0x20FAA, size: 0x8, addend: 0x0, symName: __ZNSt8__detail15_Hash_code_baseIcSt4pairIKciENS_10_Select1stESt4hashIcENS_18_Mod_range_hashingENS_20_Default_ranged_hashELb0EEC2Ev, symObjAddr: 0x188, symBinAddr: 0x100004064, symSize: 0x20 }
  - { offset: 0x20FEA, size: 0x8, addend: 0x0, symName: __ZNSt6vectorIcSaIcEEC1Ev, symObjAddr: 0x168, symBinAddr: 0x100004044, symSize: 0x20 }
  - { offset: 0x2102A, size: 0x8, addend: 0x0, symName: __ZNSt12_Vector_baseIcSaIcEEC2Ev, symObjAddr: 0x148, symBinAddr: 0x100004024, symSize: 0x20 }
  - { offset: 0x21077, size: 0x8, addend: 0x0, symName: __ZNSt12_Vector_baseIcSaIcEE12_Vector_implD1Ev, symObjAddr: 0x11C, symBinAddr: 0x100003FF8, symSize: 0x2C }
  - { offset: 0x210C0, size: 0x8, addend: 0x0, symName: __ZNSt8__detail20_Prime_rehash_policy8_M_resetEm, symObjAddr: 0xF8, symBinAddr: 0x100003FD4, symSize: 0x24 }
  - { offset: 0x210FB, size: 0x8, addend: 0x0, symName: __ZNKSt8__detail20_Prime_rehash_policy8_M_stateEv, symObjAddr: 0xE0, symBinAddr: 0x100003FBC, symSize: 0x18 }
  - { offset: 0x2114D, size: 0x8, addend: 0x0, symName: __ZNSt8__detail20_Prime_rehash_policyC1Ef, symObjAddr: 0xB4, symBinAddr: 0x100003F90, symSize: 0x2C }
  - { offset: 0x2117C, size: 0x8, addend: 0x0, symName: __ZNKSt8__detail18_Mod_range_hashingclEmm, symObjAddr: 0x84, symBinAddr: 0x100003F60, symSize: 0x30 }
  - { offset: 0x211E2, size: 0x8, addend: 0x0, symName: __ZNSt8__detail15_Hash_node_baseC1Ev, symObjAddr: 0x68, symBinAddr: 0x100003F44, symSize: 0x1C }
  - { offset: 0x2120C, size: 0x8, addend: 0x0, symName: __ZNSt8__detail15_Hash_node_baseC2Ev, symObjAddr: 0x4C, symBinAddr: 0x100003F28, symSize: 0x1C }
  - { offset: 0x21232, size: 0x8, addend: 0x0, symName: __ZNKSt4hashIcEclEc, symObjAddr: 0x30, symBinAddr: 0x100003F0C, symSize: 0x1C }
  - { offset: 0x2126F, size: 0x8, addend: 0x0, symName: __ZdlPvS_, symObjAddr: 0x18, symBinAddr: 0x100003EF4, symSize: 0x18 }
  - { offset: 0x212A5, size: 0x8, addend: 0x0, symName: __ZnwmPv, symObjAddr: 0x0, symBinAddr: 0x100003EDC, symSize: 0x18 }
...
